target datalayout = "e-m:e-p270:32:32-p271:32:32-p272:64:64-i64:64-i128:128-f80:128-n8:16:32:64-S128"
target triple = "x86_64-pc-linux-gnu"

%"class.cv::Mat" = type { i32, i32, i32, i32, ptr, ptr, ptr, ptr, ptr, ptr, %"struct.cv::MatSize", %"struct.cv::MatStep" }
%"struct.cv::MatSize" = type { ptr }
%"struct.cv::MatStep" = type { ptr, [2 x i64] }
%"struct.std::_Vector_base" = type { %"struct.std::_Vector_base<cv::Mat, std::allocator<cv::Mat>>::_Vector_impl" }
%"struct.std::_Vector_base<cv::Mat, std::allocator<cv::Mat>>::_Vector_impl" = type { %"struct.std::_Vector_base<cv::Mat, std::allocator<cv::Mat>>::_Vector_impl_data" }
%"struct.std::_Vector_base<cv::Mat, std::allocator<cv::Mat>>::_Vector_impl_data" = type { ptr, ptr, ptr }
%"class.cv::Range" = type { i32, i32 }
%"struct.(anonymous namespace)::AdaptiveManifoldFilterN::MapPrallelLoopBody" = type { %"class.cv::ParallelLoopBody", ptr, { i64, i64 }, ptr, ptr }
%"class.cv::ParallelLoopBody" = type { ptr }

; Function Attrs: mustprogress nounwind uwtable
define linkonce_odr hidden noundef nonnull align 8 dereferenceable(96) ptr @_ZNSt6vectorIN2cv3MatESaIS1_EEixEm(ptr noundef nonnull align 8 dereferenceable(24) %0, i64 noundef %1) #8 comdat align 2 {
  %3 = alloca ptr, align 8
  %4 = alloca i64, align 8
  store ptr %0, ptr %3, align 8, !tbaa !58
  store i64 %1, ptr %4, align 8, !tbaa !80
  %5 = load ptr, ptr %3, align 8
  %6 = getelementptr inbounds nuw %"struct.std::_Vector_base", ptr %5, i32 0, i32 0
  %7 = getelementptr inbounds nuw %"struct.std::_Vector_base<cv::Mat, std::allocator<cv::Mat>>::_Vector_impl_data", ptr %6, i32 0, i32 0
  %8 = load ptr, ptr %7, align 8, !tbaa !66
  %9 = load i64, ptr %4, align 8, !tbaa !80
  %10 = getelementptr inbounds nuw %"class.cv::Mat", ptr %8, i64 %9
  ret ptr %10
}

; Function Attrs: mustprogress nounwind uwtable
define linkonce_odr hidden noundef nonnull align 8 dereferenceable(96) ptr @_ZNKSt6vectorIN2cv3MatESaIS1_EEixEm(ptr noundef nonnull align 8 dereferenceable(24) %0, i64 noundef %1) #8 comdat align 2 {
  %3 = alloca ptr, align 8
  %4 = alloca i64, align 8
  store ptr %0, ptr %3, align 8, !tbaa !58
  store i64 %1, ptr %4, align 8, !tbaa !80
  %5 = load ptr, ptr %3, align 8
  %6 = getelementptr inbounds nuw %"struct.std::_Vector_base", ptr %5, i32 0, i32 0
  %7 = getelementptr inbounds nuw %"struct.std::_Vector_base<cv::Mat, std::allocator<cv::Mat>>::_Vector_impl_data", ptr %6, i32 0, i32 0
  %8 = load ptr, ptr %7, align 8, !tbaa !66
  %9 = load i64, ptr %4, align 8, !tbaa !80
  %10 = getelementptr inbounds nuw %"class.cv::Mat", ptr %8, i64 %9
  ret ptr %10
}

; Function Attrs: mustprogress uwtable
define internal void @_ZNK12_GLOBAL__N_123AdaptiveManifoldFilterN18MapPrallelLoopBodyclERKN2cv5RangeE(ptr noundef nonnull align 8 dereferenceable(48) %0, ptr noundef nonnull align 4 dereferenceable(8) %1) unnamed_addr #4 align 2 {
  %3 = alloca ptr, align 8
  %4 = alloca ptr, align 8
  %5 = alloca i32, align 4
  store ptr %0, ptr %3, align 8, !tbaa !223
  store ptr %1, ptr %4, align 8, !tbaa !218
  %6 = load ptr, ptr %3, align 8
  call void @llvm.lifetime.start.p0(i64 4, ptr %5) #3
  %7 = load ptr, ptr %4, align 8, !tbaa !218
  %8 = getelementptr inbounds nuw %"class.cv::Range", ptr %7, i32 0, i32 0
  %9 = load i32, ptr %8, align 4, !tbaa !220
  store i32 %9, ptr %5, align 4, !tbaa !74
  br label %10

10:                                               ; preds = %46, %2
  %11 = load i32, ptr %5, align 4, !tbaa !74
  %12 = load ptr, ptr %4, align 8, !tbaa !218
  %13 = getelementptr inbounds nuw %"class.cv::Range", ptr %12, i32 0, i32 1
  %14 = load i32, ptr %13, align 4, !tbaa !222
  %15 = icmp slt i32 %11, %14
  br i1 %15, label %17, label %16

16:                                               ; preds = %10
  call void @llvm.lifetime.end.p0(i64 4, ptr %5) #3
  br label %49

17:                                               ; preds = %10
  %18 = getelementptr inbounds nuw %"struct.(anonymous namespace)::AdaptiveManifoldFilterN::MapPrallelLoopBody", ptr %6, i32 0, i32 1
  %19 = load ptr, ptr %18, align 8, !tbaa !225
  %20 = getelementptr inbounds nuw %"struct.(anonymous namespace)::AdaptiveManifoldFilterN::MapPrallelLoopBody", ptr %6, i32 0, i32 2
  %21 = load { i64, i64 }, ptr %20, align 8, !tbaa !228
  %22 = extractvalue { i64, i64 } %21, 1
  %23 = getelementptr inbounds i8, ptr %19, i64 %22
  %24 = extractvalue { i64, i64 } %21, 0
  %25 = and i64 %24, 1
  %26 = icmp ne i64 %25, 0
  br i1 %26, label %27, label %32

27:                                               ; preds = %17
  %28 = load ptr, ptr %23, align 8, !tbaa !8
  %29 = sub i64 %24, 1
  %30 = getelementptr i8, ptr %28, i64 %29, !nosanitize !45
  %31 = load ptr, ptr %30, align 8, !nosanitize !45
  br label %34

32:                                               ; preds = %17
  %33 = inttoptr i64 %24 to ptr
  br label %34

34:                                               ; preds = %32, %27
  %35 = phi ptr [ %31, %27 ], [ %33, %32 ]
  %36 = getelementptr inbounds nuw %"struct.(anonymous namespace)::AdaptiveManifoldFilterN::MapPrallelLoopBody", ptr %6, i32 0, i32 3
  %37 = load ptr, ptr %36, align 8, !tbaa !231
  %38 = load i32, ptr %5, align 4, !tbaa !74
  %39 = sext i32 %38 to i64
  %40 = call noundef nonnull align 8 dereferenceable(96) ptr @_ZNKSt6vectorIN2cv3MatESaIS1_EEixEm(ptr noundef nonnull align 8 dereferenceable(24) %37, i64 noundef %39) #3
  %41 = getelementptr inbounds nuw %"struct.(anonymous namespace)::AdaptiveManifoldFilterN::MapPrallelLoopBody", ptr %6, i32 0, i32 4
  %42 = load ptr, ptr %41, align 8, !tbaa !232
  %43 = load i32, ptr %5, align 4, !tbaa !74
  %44 = sext i32 %43 to i64
  %45 = call noundef nonnull align 8 dereferenceable(96) ptr @_ZNSt6vectorIN2cv3MatESaIS1_EEixEm(ptr noundef nonnull align 8 dereferenceable(24) %42, i64 noundef %44) #3
  call void %35(ptr noundef nonnull align 8 dereferenceable(592) %23, ptr noundef nonnull align 8 dereferenceable(96) %40, ptr noundef nonnull align 8 dereferenceable(96) %45)
  br label %46

46:                                               ; preds = %34
  %47 = load i32, ptr %5, align 4, !tbaa !74
  %48 = add nsw i32 %47, 1
  store i32 %48, ptr %5, align 4, !tbaa !74
  br label %10, !llvm.loop !233

49:                                               ; preds = %16
  ret void
}