; Function Attrs: mustprogress uwtable
define internal void @_ZNK12_GLOBAL__N_123AdaptiveManifoldFilterN18MapPrallelLoopBodyclERKN2cv5RangeE(ptr noundef nonnull readonly align 8 captures(none) dereferenceable(48) %0, ptr noundef nonnull readonly align 4 captures(none) dereferenceable(8) %1) unnamed_addr #3 align 2 {
  %3 = load i32, ptr %1, align 4, !tbaa !153
  %4 = getelementptr inbounds nuw i8, ptr %1, i64 4
  %5 = load i32, ptr %4, align 4, !tbaa !155
  %6 = icmp slt i32 %3, %5
  br i1 %6, label %.lr.ph, label %._crit_edge

.lr.ph:                                           ; preds = %2
  %7 = getelementptr inbounds nuw i8, ptr %0, i64 8
  %8 = getelementptr inbounds nuw i8, ptr %0, i64 16
  %.elt6 = getelementptr inbounds nuw i8, ptr %0, i64 24
  %9 = getelementptr inbounds nuw i8, ptr %0, i64 32
  %10 = getelementptr inbounds nuw i8, ptr %0, i64 40
  %11 = sext i32 %3 to i64
  br label %12

._crit_edge:                                      ; preds = %23, %2
  ret void

12:                                               ; preds = %.lr.ph, %23
  %indvars.iv = phi i64 [ %11, %.lr.ph ], [ %indvars.iv.next, %23 ]
  %13 = load ptr, ptr %7, align 8, !tbaa !156
  %.unpack = load i64, ptr %8, align 8, !tbaa !160
  %.unpack7 = load i64, ptr %.elt6, align 8, !tbaa !160
  %14 = getelementptr inbounds i8, ptr %13, i64 %.unpack7
  %15 = and i64 %.unpack, 1
  %.not = icmp eq i64 %15, 0
  br i1 %.not, label %21, label %16

16:                                               ; preds = %12
  %17 = load ptr, ptr %14, align 8, !tbaa !3
  %18 = getelementptr i8, ptr %17, i64 %.unpack
  %19 = getelementptr i8, ptr %18, i64 -1
  %20 = load ptr, ptr %19, align 8, !nosanitize !90
  br label %23

21:                                               ; preds = %12
  %22 = inttoptr i64 %.unpack to ptr
  br label %23

23:                                               ; preds = %21, %16
  %24 = phi ptr [ %20, %16 ], [ %22, %21 ]
  %25 = load ptr, ptr %9, align 8, !tbaa !162
  %26 = load ptr, ptr %25, align 8, !tbaa !55
  %27 = getelementptr inbounds nuw %"class.cv::Mat", ptr %26, i64 %indvars.iv
  %28 = load ptr, ptr %10, align 8, !tbaa !163
  %29 = load ptr, ptr %28, align 8, !tbaa !55
  %30 = getelementptr inbounds nuw %"class.cv::Mat", ptr %29, i64 %indvars.iv
  tail call void %24(ptr noundef nonnull align 8 dereferenceable(592) %14, ptr noundef nonnull align 8 dereferenceable(96) %27, ptr noundef nonnull align 8 dereferenceable(96) %30)
  %indvars.iv.next = add nsw i64 %indvars.iv, 1
  %31 = load i32, ptr %4, align 4, !tbaa !155
  %32 = sext i32 %31 to i64
  %33 = icmp slt i64 %indvars.iv.next, %32
  br i1 %33, label %12, label %._crit_edge, !llvm.loop !164
}